(dp0
I337920
I0
sI524291
I1
sI423940
I2
sI524298
I3
sI311313
I4
sI311314
I5
sI339991
I6
sI339992
I7
sI339993
I8
sI221210
I9
sI339995
I10
sI339999
I12
sI334512
I366
sI485410
I14
sI335911
I15
sI335912
I16
sI311340
I17
sI236210
I368
sI335921
I19
sI522291
I20
sI522292
I21
sI522293
I22
sI423990
I23
sI311351
I24
sI311352
I25
sI335929
I26
sI522298
I27
sI335931
I28
sI335932
I29
sI532490
I30
sI518210
I31
sI322230
I372
sI522310
I33
sI237120
I813
sI311991
I373
sI522320
I36
sI311111
I964
sI333911
I37
sI333912
I38
sI333913
I39
sI531130
I374
sI212325
I698
sI333921
I41
sI333922
I42
sI333923
I43
sI333924
I44
sI811111
I45
sI811112
I46
sI811113
I47
sI512110
I50
sI811121
I51
sI811122
I52
sI311411
I53
sI311412
I54
sI321214
I882
sI213111
I56
sI213112
I57
sI213113
I58
sI213114
I59
sI213115
I60
sI311421
I61
sI221310
I62
sI311423
I63
sI325312
I884
sI512131
I65
sI512132
I66
sI485510
I67
sI221320
I68
sI325314
I886
sI333413
I838
sI221330
I69
sI928110
I70
sI522390
I71
sI813211
I72
sI813212
I73
sI339994
I74
sI561311
I75
sI561312
I76
sI813219
I77
sI211111
I78
sI561320
I79
sI333993
I80
sI333994
I81
sI333995
I82
sI333996
I83
sI333997
I84
sI424110
I85
sI333999
I86
sI561330
I87
sI424990
I541
sI811191
I89
sI424120
I90
sI333514
I893
sI811198
I93
sI512191
I94
sI424130
I95
sI335222
I711
sI512199
I97
sI551112
I98
sI551114
I99
sI811211
I100
sI811212
I101
sI811213
I102
sI111992
I713
sI512210
I104
sI811219
I105
sI111310
I383
sI721110
I107
sI311511
I108
sI311512
I109
sI311513
I110
sI311514
I111
sI512220
I112
sI311520
I113
sI327910
I115
sI336111
I117
sI336112
I118
sI452990
I119
sI336120
I120
sI488490
I547
sI813311
I122
sI813312
I123
sI424320
I124
sI561410
I125
sI813319
I126
sI561421
I128
sI112910
I129
sI424210
I130
sI325910
I131
sI561431
I132
sI112920
I133
sI334111
I135
sI325920
I185
sI512290
I137
sI722310
I718
sI334118
I139
sI721191
I140
sI561450
I141
sI452910
I142
sI721199
I143
sI332510
I391
sI327991
I145
sI327992
I146
sI327993
I147
sI311611
I148
sI311612
I149
sI311613
I150
sI721214
I151
sI311615
I152
sI423710
I940
sI522294
I154
sI624410
I937
sI423510
I827
sI332111
I155
sI332112
I156
sI332114
I157
sI336211
I158
sI336212
I159
sI332117
I160
sI336214
I161
sI332119
I162
sI111332
I395
sI561499
I164
sI561210
I165
sI112990
I166
sI813410
I167
sI238310
I397
sI561510
I169
sI325991
I170
sI325992
I171
sI325998
I172
sI331511
I917
sI561520
I173
sI424310
I174
sI321911
I175
sI321912
I176
sI811412
I177
sI321918
I178
sI321920
I179
sI334210
I181
sI327420
I920
sI424330
I183
sI334220
I184
sI483111
I946
sI811411
I186
sI424340
I187
sI713110
I188
sI813110
I190
sI811420
I191
sI311710
I192
sI713120
I193
sI237130
I819
sI237990
I194
sI115111
I195
sI926120
I196
sI115113
I197
sI115114
I198
sI115115
I199
sI115116
I200
sI327410
I913
sI926130
I203
sI721310
I204
sI541110
I302
sI561591
I307
sI332216
I207
sI926140
I208
sI561599
I209
sI336320
I336
sI531190
I407
sI711110
I212
sI321991
I213
sI321992
I214
sI336330
I215
sI561611
I216
sI561612
I217
sI561613
I218
sI924110
I219
sI321999
I220
sI711120
I221
sI331512
I918
sI334290
I223
sI336340
I224
sI561621
I225
sI113110
I226
sI331513
I919
sI924120
I228
sI424410
I229
sI336350
I230
sI326111
I231
sI326112
I232
sI326113
I233
sI811490
I234
sI424420
I235
sI811430
I236
sI334310
I237
sI336360
I238
sI326121
I239
sI326122
I240
sI212391
I727
sI424430
I242
sI115112
I243
sI326130
I244
sI621310
I411
sI453110
I246
sI424440
I247
sI713210
I248
sI326140
I249
sI922110
I250
sI424450
I252
sI311811
I253
sI311812
I254
sI311813
I255
sI111110
I256
sI541191
I257
sI922120
I258
sI115210
I259
sI424460
I260
sI311821
I261
sI324110
I262
sI541199
I263
sI111120
I264
sI922130
I265
sI311830
I266
sI332311
I267
sI332312
I268
sI324121
I269
sI111130
I270
sI336411
I271
sI336412
I272
sI336413
I273
sI336414
I274
sI336415
I275
sI424480
I276
sI332321
I277
sI332322
I278
sI336419
I279
sI111140
I280
sI424710
I415
sI922150
I282
sI238120
I283
sI424490
I284
sI711211
I285
sI711212
I286
sI111150
I287
sI326191
I288
sI451120
I289
sI621320
I416
sI238130
I291
sI711219
I292
sI487990
I293
sI326199
I294
sI111160
I295
sI113210
I296
sI238140
I297
sI322110
I298
sI561730
I299
sI326211
I300
sI326212
I301
sI336310
I205
sI238150
I303
sI424520
I304
sI322121
I305
sI322122
I306
sI332215
I206
sI326220
I134
sI334413
I309
sI492110
I310
sI238160
I311
sI334417
I312
sI322130
I313
sI236115
I314
sI236116
I315
sI236117
I316
sI236118
I317
sI111191
I318
sI238170
I319
sI212313
I691
sI324191
I320
sI453220
I321
sI311911
I322
sI623210
I324
sI111211
I325
sI488210
I420
sI115310
I327
sI311919
I328
sI311920
I329
sI111219
I331
sI623220
I332
sI533110
I333
sI332410
I334
sI336510
I335
sI541120
I210
sI238210
I337
sI332420
I338
sI311941
I339
sI447110
I340
sI541320
I341
sI451211
I343
sI238220
I344
sI424590
I345
sI332431
I346
sI541330
I347
sI326291
I348
sI423810
I996
sI811118
I349
sI332439
I350
sI711320
I351
sI621210
I352
sI326299
I353
sI541340
I354
sI445210
I424
sI113310
I356
sI442291
I1019
sI424610
I357
sI322211
I358
sI322212
I359
sI926150
I360
sI531110
I35
sI112390
I927
sI621999
I847
sI322219
I362
sI322220
I363
sI334510
I364
sI334511
I365
sI531120
I13
sI334513
I367
sI334514
I18
sI334515
I369
sI334516
I370
sI334517
I371
sI445110
I32
sI334519
I34
sI541370
I40
sI541360
I375
sI236220
I376
sI453310
I377
sI311999
I378
sI445120
I379
sI541380
I380
sI212112
I586
sI335991
I382
sI112130
I777
sI316110
I106
sI623311
I384
sI623312
I385
sI512120
I386
sI238290
I387
sI447190
I388
sI111320
I389
sI325412
I943
sI922140
I1045
sI486110
I144
sI325413
I944
sI327120
I750
sI541410
I393
sI111331
I394
sI336612
I163
sI111333
I396
sI111334
I168
sI111335
I398
sI111336
I399
sI111339
I400
sI541420
I401
sI221115
I1026
sI238320
I402
sI423720
I947
sI424690
I404
sI322291
I405
sI311422
I406
sI541430
I211
sI238330
I408
sI322299
I409
sI483114
I949
sI314110
I245
sI331221
I753
sI561920
I412
sI238340
I413
sI443141
I414
sI443142
I281
sI314120
I290
sI531210
I417
sI221116
I1027
sI238350
I418
sI424720
I419
sI621330
I326
sI334613
I421
sI441110
I422
sI484121
I423
sI484122
I355
sI621340
I425
sI711130
I426
sI441120
I427
sI445220
I428
sI511110
I580
sI611110
I430
sI316210
I436
sI445230
I432
sI312111
I433
sI312112
I434
sI312113
I435
sI541490
I431
sI111411
I437
sI238390
I438
sI312120
I439
sI111419
I440
sI111421
I441
sI111422
I442
sI482111
I443
sI482112
I444
sI312130
I445
sI332613
I446
sI561990
I447
sI541511
I448
sI541512
I449
sI541513
I450
sI332618
I451
sI312140
I452
sI541519
I453
sI112210
I824
sI711510
I454
sI621399
I455
sI813920
I456
sI511120
I457
sI621410
I458
sI523110
I459
sI423740
I960
sI424810
I461
sI445291
I462
sI445292
I463
sI531311
I464
sI523120
I465
sI484210
I466
sI445299
I467
sI813940
I468
sI488310
I469
sI926110
I470
sI531320
I471
sI441210
I473
sI484220
I474
sI442210
I984
sI445310
I476
sI488320
I477
sI525120
I478
sI523140
I479
sI441222
I480
sI488330
I482
sI441228
I483
sI486210
I484
sI521110
I485
sI532292
I963
sI511130
I590
sI112112
I768
sI312230
I490
sI561622
I491
sI541611
I492
sI541612
I493
sI336370
I494
sI541614
I495
sI332721
I496
sI541618
I497
sI621491
I498
sI541620
I499
sI621493
I500
sI621498
I501
sI531390
I502
sI562111
I503
sI562112
I504
sI488390
I507
sI562119
I508
sI621512
I509
sI523210
I510
sI424910
I511
sI519120
I512
sI112120
I772
sI238990
I720
sI424920
I514
sI511140
I596
sI488410
I516
sI621391
I517
sI441310
I518
sI424930
I519
sI524113
I971
sI441320
I521
sI333991
I522
sI424940
I523
sI611310
I525
sI211112
I526
sI486910
I775
sI424950
I528
sI541690
I529
sI336390
I810
sI813910
I531
sI332811
I532
sI332812
I533
sI332813
I534
sI541711
I535
sI541712
I536
sI519190
I537
sI541720
I538
sI333316
I778
sI488111
I540
sI814110
I88
sI562211
I542
sI562212
I543
sI562213
I544
sI515111
I545
sI515112
I546
sI621610
I121
sI562219
I548
sI624230
I839
sI515120
I550
sI488510
I551
sI525110
I552
sI333618
I956
sI812111
I555
sI812112
I556
sI812113
I557
sI611410
I558
sI483211
I1002
sI611513
I610
sI333318
I780
sI517210
I559
sI611420
I561
sI336991
I562
sI336992
I563
sI311824
I564
sI325194
I739
sI611430
I565
sI336999
I566
sI315110
I909
sI332911
I568
sI332912
I569
sI332913
I570
sI541810
I571
sI332919
I572
sI333992
I573
sI541820
I574
sI813930
I575
sI332992
I614
sI424470
I579
sI541830
I429
sI621420
I582
sI326150
I583
sI332994
I616
sI212111
I585
sI541840
I153
sI212113
I587
sI425110
I588
sI332313
I589
sI541850
I487
sI324122
I591
sI812191
I592
sI425120
I593
sI531312
I594
sI541211
I595
sI541860
I515
sI812199
I597
sI339112
I598
sI339113
I599
sI339114
I600
sI339115
I601
sI339116
I602
sI541870
I603
sI541213
I604
sI812210
I605
sI114112
I741
sI541214
I189
sI713910
I607
sI611511
I608
sI611512
I609
sI424820
I472
sI812220
I612
sI332991
I581
sI713920
I577
sI332993
I615
sI541890
I584
sI332996
I617
sI423110
I618
sI332999
I619
sI713930
I620
sI423120
I621
sI332323
I622
sI713940
I623
sI337110
I624
sI511191
I625
sI332722
I994
sI423130
I626
sI523130
I628
sI713950
I629
sI511199
I630
sI337121
I631
sI337122
I632
sI337124
I520
sI337125
I530
sI337127
I635
sI511210
I636
sI323111
I795
sI212210
I638
sI541940
I639
sI492210
I640
sI212221
I642
sI212222
I643
sI711190
I746
sI541910
I644
sI541219
I645
sI212231
I646
sI212234
I647
sI488119
I648
sI323117
I800
sI335121
I650
sI335122
I651
sI561710
I653
sI812310
I654
sI335129
I655
sI611610
I656
sI812320
I657
sI922160
I658
sI517410
I659
sI611620
I660
sI484230
I661
sI111910
I662
sI423210
I663
sI812331
I664
sI812332
I665
sI611630
I666
sI111920
I667
sI423220
I668
sI333111
I669
sI333112
I670
sI111930
I671
sI337211
I672
sI337212
I673
sI611210
I674
sI238910
I675
sI337215
I676
sI333120
I677
sI721120
I678
sI212291
I679
sI111940
I680
sI237110
I807
sI541921
I682
sI311942
I1007
sI423820
I1003
sI212299
I91
sI333132
I685
sI541922
I686
sI621112
I687
sI621910
I688
sI212311
I689
sI212312
I690
sI423140
I633
sI451130
I693
sI212319
I694
sI212321
I695
sI212322
I696
sI212324
I697
sI512230
I180
sI331110
I699
sI453991
I700
sI335210
I701
sI611691
I702
sI611692
I703
sI453998
I705
sI561910
I706
sI334614
I707
sI611699
I708
sI335221
I710
sI623990
I96
sI111991
I712
sI335224
I103
sI335228
I714
sI541930
I715
sI111998
I716
sI316992
I717
sI927110
I138
sI423490
I815
sI423310
I342
sI722320
I721
sI311224
I1023
sI423320
I722
sI451140
I723
sI722330
I724
sI512240
I725
sI423330
I726
sI621991
I241
sI212392
I728
sI212393
I729
sI712110
I730
sI212399
I731
sI925110
I732
sI325193
I818
sI712120
I734
sI333241
I735
sI333242
I736
sI333243
I737
sI333244
I738
sI713290
I506
sI114111
I740
sI925120
I709
sI333249
I742
sI712130
I743
sI327110
I744
sI114119
I745
sI561740
I308
sI331210
I747
sI326160
I748
sI335311
I749
sI335312
I392
sI335313
I751
sI335314
I752
sI922190
I692
sI331222
I754
sI325199
I822
sI423390
I756
sI454111
I757
sI454112
I758
sI454113
I759
sI332710
I761
sI923110
I762
sI722410
I764
sI722514
I765
sI624110
I766
sI112111
I767
sI923120
I488
sI423410
I769
sI334419
I770
sI325110
I771
sI624120
I513
sI923130
I773
sI423420
I774
sI712190
I527
sI325120
I776
sI333314
I251
sI923140
I539
sI315990
I779
sI423430
I48
sI334412
I781
sI325130
I782
sI452111
I560
sI452112
I784
sI334112
I885
sI921110
I785
sI423450
I786
sI444210
I787
sI453210
I788
sI622110
I505
sI488991
I790
sI811192
I791
sI114210
I792
sI423460
I793
sI713990
I760
sI488999
I637
sI323113
I796
sI921130
I797
sI327211
I798
sI327212
I799
sI327213
I649
sI611710
I1011
sI327215
I801
sI323120
I802
sI331313
I803
sI331314
I804
sI331315
I805
sI921140
I806
sI331318
I681
sI334416
I808
sI621492
I809
sI111199
I611
sI325180
I811
sI921150
I812
sI493120
I330
sI423520
I835
sI454210
I719
sI316998
I816
sI311230
I817
sI621111
I684
sI493130
I114
sI486990
I821
sI722511
I755
sI722513
I823
sI624210
I323
sI722515
I825
sI561422
I826
sI525910
I820
sI311225
I1024
sI321113
I829
sI321114
I830
sI325211
I831
sI325212
I832
sI624221
I833
sI624229
I834
sI525920
I814
sI481211
I836
sI325220
I837
sI491110
I524
sI921190
I49
sI333415
I840
sI325520
I1005
sI481212
I841
sI324199
I842
sI448110
I843
sI928120
I844
sI314994
I845
sI334418
I846
sI812990
I481
sI314999
I848
sI448120
I849
sI622210
I852
sI453910
I853
sI493190
I182
sI442110
I1030
sI493110
I856
sI448140
I857
sI313210
I991
sI327310
I858
sI532111
I859
sI523920
I860
sI331410
I861
sI481219
I1032
sI238190
I862
sI448150
I863
sI327320
I864
sI237210
I865
sI485999
I866
sI331420
I867
sI446110
I868
sI327331
I870
sI327332
I871
sI519110
I872
sI454310
I873
sI446120
I1056
sI621511
I875
sI446130
I876
sI624310
I877
sI423610
I878
sI561439
I879
sI321212
I880
sI321213
I881
sI448190
I55
sI325311
I883
sI112320
I64
sI561440
I136
sI484110
I489
sI321219
I887
sI423620
I888
sI487110
I889
sI333511
I890
sI325320
I891
sI485991
I892
sI112330
I92
sI333515
I894
sI333517
I895
sI444110
I896
sI333519
I897
sI448210
I898
sI315190
I958
sI112340
I899
sI523991
I900
sI444120
I901
sI311930
I902
sI327390
I553
sI523999
I904
sI444130
I905
sI331491
I906
sI331492
I907
sI541990
I908
sI622310
I403
sI221118
I1029
sI562920
I910
sI446191
I912
sI532210
I201
sI321211
I914
sI541310
I915
sI454390
I916
sI485111
I549
sI485112
I222
sI485113
I227
sI532220
I869
sI453930
I921
sI237310
I922
sI485119
I923
sI624190
I1037
sI331523
I925
sI331524
I926
sI532230
I578
sI331529
I928
sI423690
I929
sI448130
I930
sI112310
I931
sI921120
I932
sI448310
I933
sI811310
I934
sI314910
I789
sI517911
I936
sI112410
I381
sI424510
I938
sI813990
I969
sI519130
I939
sI444190
I850
sI517919
I941
sI325411
I942
sI112420
I390
sI523910
I854
sI325414
I945
sI561720
I763
sI483112
I202
sI483113
I948
sI487210
I410
sI333611
I950
sI333612
I951
sI333613
I952
sI562991
I953
sI551111
I955
sI423730
I486
sI562998
I652
sI711410
I959
sI444220
I460
sI448320
I961
sI532291
I962
sI541613
I783
sI515210
I935
sI451212
I965
sI315210
I966
sI532299
I967
sI313110
I968
sI333414
I924
sI311119
I970
sI442299
I954
sI524114
I972
sI315220
I973
sI711310
I974
sI532310
I975
sI481111
I976
sI481112
I977
sI485210
I978
sI561790
I979
sI524126
I980
sI524127
I981
sI524128
I982
sI532112
I983
sI524130
I554
sI721211
I985
sI423910
I1049
sI315240
I986
sI812910
I987
sI446199
I988
sI337214
I989
sI812921
I990
sI812922
I627
sI327999
I992
sI522110
I993
sI112511
I641
sI112512
I995
sI812930
I576
sI325611
I1051
sI313220
I997
sI325510
I998
sI112519
I999
sI522120
I1000
sI325612
I1052
sI451110
I634
sI483212
I683
sI313230
I1004
sI315280
I11
sI532120
I1006
sI522130
I704
sI423830
I1008
sI611519
I613
sI313240
I1009
sI523930
I1010
sI238110
I606
sI423840
I1012
sI335110
I794
sI453920
I1013
sI423850
I1014
sI311211
I1015
sI311212
I1016
sI311213
I1017
sI525990
I1048
sI524210
I1018
sI623110
I851
sI423860
I1020
sI311221
I1021
sI221111
I1022
sI221112
I733
sI221113
I828
sI221114
I1025
sI532411
I116
sI532412
I127
sI221117
I1028
sI485310
I475
sI221121
I855
sI221122
I1031
sI333131
I874
sI532420
I1033
sI517110
I1034
sI339910
I1035
sI485320
I1036
sI423440
I911
sI112930
I1038
sI522190
I1039
sI339920
I1040
sI561110
I1041
sI488190
I1042
sI339930
I1043
sI336611
I1044
sI313310
I957
sI522210
I1046
sI339940
I1047
sI541350
I361
sI562910
I903
sI313320
I1050
sI335999
I567
sI522220
I1001
sI325613
I1053
sI339950
I1054
sI423920
I1055
sI561491
I1057
sI325620
I1058
sI524292
I1059
sI337910
I1060
sI561492
I1061
sI423930
I1062
sI525190
I1063
sI336213
I1064
s.