(lp0
I337920
aI524291
aI423940
aI524298
aI311313
aI311314
aI339991
aI339992
aI339993
aI221210
aI339995
aI315280
aI339999
aI531120
aI485410
aI335911
aI335912
aI311340
aI334514
aI335921
aI522291
aI522292
aI522293
aI423990
aI311351
aI311352
aI335929
aI522298
aI335931
aI335932
aI532490
aI518210
aI445110
aI522310
aI334519
aI531110
aI522320
aI333911
aI333912
aI333913
aI541370
aI333921
aI333922
aI333923
aI333924
aI811111
aI811112
aI811113
aI423430
aI921190
aI512110
aI811121
aI811122
aI311411
aI311412
aI448190
aI213111
aI213112
aI213113
aI213114
aI213115
aI311421
aI221310
aI311423
aI112320
aI512131
aI512132
aI485510
aI221320
aI221330
aI928110
aI522390
aI813211
aI813212
aI339994
aI561311
aI561312
aI813219
aI211111
aI561320
aI333993
aI333994
aI333995
aI333996
aI333997
aI424110
aI333999
aI561330
aI814110
aI811191
aI424120
aI212299
aI112330
aI811198
aI512191
aI424130
aI623990
aI512199
aI551112
aI551114
aI811211
aI811212
aI811213
aI335224
aI512210
aI811219
aI316110
aI721110
aI311511
aI311512
aI311513
aI311514
aI512220
aI311520
aI493130
aI327910
aI532411
aI336111
aI336112
aI452990
aI336120
aI621610
aI813311
aI813312
aI424320
aI561410
aI813319
aI532412
aI561421
aI112910
aI424210
aI325910
aI561431
aI112920
aI326220
aI334111
aI561440
aI512290
aI927110
aI334118
aI721191
aI561450
aI452910
aI721199
aI486110
aI327991
aI327992
aI327993
aI311611
aI311612
aI311613
aI721214
aI311615
aI541840
aI522294
aI332111
aI332112
aI332114
aI336211
aI336212
aI332117
aI336214
aI332119
aI336612
aI561499
aI561210
aI112990
aI813410
aI111334
aI561510
aI325991
aI325992
aI325998
aI561520
aI424310
aI321911
aI321912
aI811412
aI321918
aI321920
aI512230
aI334210
aI493190
aI424330
aI334220
aI325920
aI811411
aI424340
aI713110
aI541214
aI813110
aI811420
aI311710
aI713120
aI237990
aI115111
aI926120
aI115113
aI115114
aI115115
aI115116
aI532210
aI483112
aI926130
aI721310
aI336310
aI332215
aI332216
aI926140
aI561599
aI541120
aI541430
aI711110
aI321991
aI321992
aI336330
aI561611
aI561612
aI561613
aI924110
aI321999
aI711120
aI485112
aI334290
aI336340
aI561621
aI113110
aI485113
aI924120
aI424410
aI336350
aI326111
aI326112
aI326113
aI811490
aI424420
aI811430
aI334310
aI336360
aI326121
aI326122
aI621991
aI424430
aI115112
aI326130
aI314110
aI453110
aI424440
aI713210
aI326140
aI922110
aI333314
aI424450
aI311811
aI311812
aI311813
aI111110
aI541191
aI922120
aI115210
aI424460
aI311821
aI324110
aI541199
aI111120
aI922130
aI311830
aI332311
aI332312
aI324121
aI111130
aI336411
aI336412
aI336413
aI336414
aI336415
aI424480
aI332321
aI332322
aI336419
aI111140
aI443142
aI922150
aI238120
aI424490
aI711211
aI711212
aI111150
aI326191
aI451120
aI314120
aI238130
aI711219
aI487990
aI326199
aI111160
aI113210
aI238140
aI322110
aI561730
aI326211
aI326212
aI541110
aI238150
aI424520
aI322121
aI322122
aI561591
aI561740
aI334413
aI492110
aI238160
aI334417
aI322130
aI236115
aI236116
aI236117
aI236118
aI111191
aI238170
aI324191
aI453220
aI311911
aI624210
aI623210
aI111211
aI621330
aI115310
aI311919
aI311920
aI493120
aI111219
aI623220
aI533110
aI332410
aI336510
aI336320
aI238210
aI332420
aI311941
aI447110
aI541320
aI423310
aI451211
aI238220
aI424590
aI332431
aI541330
aI326291
aI811118
aI332439
aI711320
aI621210
aI326299
aI541340
aI484122
aI113310
aI424610
aI322211
aI322212
aI926150
aI541350
aI322219
aI322220
aI334510
aI334511
aI334512
aI334513
aI236210
aI334515
aI334516
aI334517
aI322230
aI311991
aI531130
aI541360
aI236220
aI453310
aI311999
aI445120
aI541380
aI112410
aI335991
aI111310
aI623311
aI623312
aI512120
aI238290
aI447190
aI111320
aI112420
aI332510
aI335312
aI541410
aI111331
aI111332
aI111333
aI238310
aI111335
aI111336
aI111339
aI541420
aI238320
aI622310
aI424690
aI322291
aI311422
aI531190
aI238330
aI322299
aI487210
aI621310
aI561920
aI238340
aI443141
aI424710
aI621320
aI531210
aI238350
aI424720
aI488210
aI334613
aI441110
aI484121
aI445210
aI621340
aI711130
aI441120
aI445220
aI541830
aI611110
aI541490
aI445230
aI312111
aI312112
aI312113
aI316210
aI111411
aI238390
aI312120
aI111419
aI111421
aI111422
aI482111
aI482112
aI312130
aI332613
aI561990
aI541511
aI541512
aI541513
aI332618
aI312140
aI541519
aI711510
aI621399
aI813920
aI511120
aI621410
aI523110
aI444220
aI424810
aI445291
aI445292
aI531311
aI523120
aI484210
aI445299
aI813940
aI488310
aI926110
aI531320
aI424820
aI441210
aI484220
aI485310
aI445310
aI488320
aI525120
aI523140
aI441222
aI812990
aI488330
aI441228
aI486210
aI521110
aI423730
aI541850
aI923120
aI484110
aI312230
aI561622
aI541611
aI541612
aI336370
aI541614
aI332721
aI541618
aI621491
aI541620
aI621493
aI621498
aI531390
aI562111
aI562112
aI622110
aI713290
aI488390
aI562119
aI621512
aI523210
aI424910
aI519120
aI624120
aI424920
aI541860
aI488410
aI621391
aI441310
aI424930
aI337124
aI441320
aI333991
aI424940
aI491110
aI611310
aI211112
aI712190
aI424950
aI541690
aI337125
aI813910
aI332811
aI332812
aI332813
aI541711
aI541712
aI519190
aI541720
aI923140
aI488111
aI424990
aI562211
aI562212
aI562213
aI515111
aI515112
aI488490
aI562219
aI485111
aI515120
aI488510
aI525110
aI327390
aI524130
aI812111
aI812112
aI812113
aI611410
aI517210
aI452111
aI611420
aI336991
aI336992
aI311824
aI611430
aI336999
aI335999
aI332911
aI332912
aI332913
aI541810
aI332919
aI333992
aI541820
aI813930
aI812930
aI713920
aI532230
aI424470
aI511110
aI332991
aI621420
aI326150
aI541890
aI212111
aI212112
aI212113
aI425110
aI332313
aI511130
aI324122
aI812191
aI425120
aI531312
aI541211
aI511140
aI812199
aI339112
aI339113
aI339114
aI339115
aI339116
aI541870
aI541213
aI812210
aI238110
aI713910
aI611511
aI611512
aI611513
aI111199
aI812220
aI611519
aI332992
aI332993
aI332994
aI332996
aI423110
aI332999
aI713930
aI423120
aI332323
aI713940
aI337110
aI511191
aI423130
aI812922
aI523130
aI713950
aI511199
aI337121
aI337122
aI423140
aI451110
aI337127
aI511210
aI488999
aI212210
aI541940
aI492210
aI112511
aI212221
aI212222
aI541910
aI541219
aI212231
aI212234
aI488119
aI327213
aI335121
aI335122
aI562998
aI561710
aI812310
aI335129
aI611610
aI812320
aI922160
aI517410
aI611620
aI484230
aI111910
aI423210
aI812331
aI812332
aI611630
aI111920
aI423220
aI333111
aI333112
aI111930
aI337211
aI337212
aI611210
aI238910
aI337215
aI333120
aI721120
aI212291
aI111940
aI331318
aI541921
aI483212
aI621111
aI333132
aI541922
aI621112
aI621910
aI212311
aI212312
aI212313
aI922190
aI451130
aI212319
aI212321
aI212322
aI212324
aI212325
aI331110
aI453991
aI335210
aI611691
aI611692
aI522130
aI453998
aI561910
aI334614
aI611699
aI925120
aI335221
aI335222
aI111991
aI111992
aI335228
aI541930
aI111998
aI316992
aI722310
aI454210
aI238990
aI722320
aI423320
aI451140
aI722330
aI512240
aI423330
aI212391
aI212392
aI212393
aI712110
aI212399
aI925110
aI221112
aI712120
aI333241
aI333242
aI333243
aI333244
aI325194
aI114111
aI114112
aI333249
aI712130
aI327110
aI114119
aI711190
aI331210
aI326160
aI335311
aI327120
aI335313
aI335314
aI331221
aI331222
aI722511
aI423390
aI454111
aI454112
aI454113
aI713990
aI332710
aI923110
aI561720
aI722410
aI722514
aI624110
aI112111
aI112112
aI423410
aI334419
aI325110
aI112120
aI923130
aI423420
aI486910
aI325120
aI112130
aI333316
aI315990
aI333318
aI334412
aI325130
aI541613
aI452112
aI921110
aI423450
aI444210
aI453210
aI314910
aI488991
aI811192
aI114210
aI423460
aI335110
aI323111
aI323113
aI921130
aI327211
aI327212
aI323117
aI327215
aI323120
aI331313
aI331314
aI331315
aI921140
aI237110
aI334416
aI621492
aI336390
aI325180
aI921150
aI237120
aI525920
aI423490
aI316998
aI311230
aI325193
aI237130
aI525910
aI486990
aI325199
aI722513
aI112210
aI722515
aI561422
aI423510
aI221113
aI321113
aI321114
aI325211
aI325212
aI624221
aI624229
aI423520
aI481211
aI325220
aI333413
aI624230
aI333415
aI481212
aI324199
aI448110
aI928120
aI314994
aI334418
aI621999
aI314999
aI448120
aI444190
aI623110
aI622210
aI453910
aI523910
aI221121
aI493110
aI448140
aI327310
aI532111
aI523920
aI331410
aI238190
aI448150
aI327320
aI237210
aI485999
aI331420
aI446110
aI532220
aI327331
aI327332
aI519110
aI454310
aI333131
aI621511
aI446130
aI624310
aI423610
aI561439
aI321212
aI321213
aI321214
aI325311
aI325312
aI334112
aI325314
aI321219
aI423620
aI487110
aI333511
aI325320
aI485991
aI333514
aI333515
aI333517
aI444110
aI333519
aI448210
aI112340
aI523991
aI444120
aI311930
aI562910
aI523999
aI444130
aI331491
aI331492
aI541990
aI315110
aI562920
aI423440
aI446191
aI327410
aI321211
aI541310
aI454390
aI331511
aI331512
aI331513
aI327420
aI453930
aI237310
aI485119
aI333414
aI331523
aI331524
aI112390
aI331529
aI423690
aI448130
aI112310
aI921120
aI448310
aI811310
aI515210
aI517911
aI624410
aI424510
aI519130
aI423710
aI517919
aI325411
aI325412
aI325413
aI325414
aI483111
aI423720
aI483113
aI483114
aI333611
aI333612
aI333613
aI562991
aI442299
aI551111
aI333618
aI313310
aI315190
aI711410
aI423740
aI448320
aI532291
aI532292
aI311111
aI451212
aI315210
aI532299
aI313110
aI813990
aI311119
aI524113
aI524114
aI315220
aI711310
aI532310
aI481111
aI481112
aI485210
aI561790
aI524126
aI524127
aI524128
aI532112
aI442210
aI721211
aI315240
aI812910
aI446199
aI337214
aI812921
aI313210
aI327999
aI522110
aI332722
aI112512
aI423810
aI313220
aI325510
aI112519
aI522120
aI522220
aI483211
aI423820
aI313230
aI325520
aI532120
aI311942
aI423830
aI313240
aI523930
aI611710
aI423840
aI453920
aI423850
aI311211
aI311212
aI311213
aI524210
aI442291
aI423860
aI311221
aI221111
aI311224
aI311225
aI221114
aI221115
aI221116
aI221117
aI221118
aI442110
aI221122
aI481219
aI532420
aI517110
aI339910
aI485320
aI624190
aI112930
aI522190
aI339920
aI561110
aI488190
aI339930
aI336611
aI922140
aI522210
aI339940
aI525990
aI423910
aI313320
aI325611
aI325612
aI325613
aI339950
aI423920
aI446120
aI561491
aI325620
aI524292
aI337910
aI561492
aI423930
aI525190
aI336213
a.