(dp0
Vf5dc1d57-9308-4350-a2e6-8263282a3329
p1
Vhome goods store store
p2
sVd77c4885-383c-4922-bef3-ac6de3251936
p3
NsV0c5fa6f1-3dd4-407f-b162-0b1c047ab6f2
p4
NsVa0ca37a5-a469-4754-b804-ad00951eb01f
p5
S''
p6
sV31da22f4-ef0b-4fcb-9a6a-ed8f3ba4b5f6
p7
NsV001e39f5-34ca-4559-8333-c66c8c251640
p8
Vconvenience store food home goods store electronics store store health
p9
sV7627bc01-07ed-4c0e-8e23-4f41b61bfb91
p10
Vbeauty salon
p11
sV013619fa-3d70-4671-8003-eb282330fac3
p12
Vrestaurant food
p13
sVef82d5b2-8226-4a12-b20d-c523dca020c9
p14
Vhair care
p15
sVe3aa9e9d-1f37-491b-841b-5d7089a2bbcf
p16
Vstore parking car repair
p17
sVea9cad26-d7cb-448c-9ea8-2242033e975a
p18
NsV4e5cd71a-1b90-46e0-ae1a-36231ec7b234
p19
Vreal estate agency
p20
sV2a878781-b2cb-45cd-bc1f-e8f0e0939cd2
p21
Vfinance
p22
sVad837211-49bf-4808-8765-3084f72207bd
p23
NsVb219bda6-6700-43fd-a650-4783419845c2
p24
NsVb325382e-54ab-47d5-a368-5b7097a18a1b
p25
Vhealth
p26
sV9ae05383-15c8-4254-b77e-a0c60aa8fba9
p27
Vcar dealer store
p28
sVdb84e0d7-63f7-472e-a43b-c36ac800c4ed
p29
Vroute
p30
sV9741dc0c-59d1-4a28-8c57-4cbf1c86c4e6
p31
Vroofing contractor general contractor home goods store store
p32
sVcd132043-d2d8-4358-b5ff-2cfa80d5664a
p33
Vstore
p34
sV5e6e79e8-f216-482d-8c9d-cfc0cc784b76
p35
Vchurch place of worship
p36
sV7adcb473-a03b-4bea-a6df-7e668e3705dd
p37
g6
sVc5275126-27ec-4171-9622-8a80cdf72cbe
p38
NsV8fcd825c-dafe-4ad2-adb5-2f6e2466158e
p39
Vhealth
p40
sV8079f039-a79d-4169-8968-e3dbf496f578
p41
NsV7b82dbf9-9379-43ec-bc02-39ac8f674c7a
p42
Vcar repair
p43
sVe10ca6b7-de8b-47dd-bd71-bd1ade0bbf87
p44
NsVca622625-7179-4363-8857-8668afe4dc16
p45
NsV2c3cccf0-3eb4-455f-b50b-208c9b1a4f8d
p46
NsVc5c28435-6bda-45b1-89a7-bce69fe7e263
p47
Vflorist store
p48
sV07264cd9-039a-4f85-a653-e81efc6fb52e
p49
g6
sVf9e984cf-c2a2-4158-ac69-d55b1ab5b77e
p50
NsV132ecd82-ba77-45d3-88b0-761e89e52ad2
p51
Vbeauty salon store spa hair care
p52
sV1cd4c4f3-ea56-45cb-9902-ceba54ae889d
p53
g6
sVa8e6879d-135a-48fc-907c-452e5be4e191
p54
Vfinance
p55
sVfc00442f-3152-4141-8d44-a5f6c8cf5d3a
p56
Vpharmacy convenience store food store health
p57
sV85ecdf7d-c8f2-447d-9963-fccde2d408d8
p58
Vstore
p59
sVb6cdea47-e0c2-4869-a715-cdb2a868514b
p60
Vgym health
p61
sV0b628d4c-a2f7-44ec-8833-c36bb31f13d8
p62
g6
sV2f670c52-82f1-4e4e-9604-e3febcda6823
p63
Velectrician
p64
sV47acf37a-0679-4e06-8743-a0f6df8b40ff
p65
Vreal estate agency
p66
sV9ac92874-af22-44ef-97cd-957b90ab79da
p67
NsVfa9d35a9-1edd-4421-bedc-f03443496deb
p68
NsVcb69ff87-92ad-45b0-a687-f4d89adf66f4
p69
Vreal estate agency
p70
sV5a94a60b-fbea-4c3c-87a3-44e5edfcb092
p71
Vflorist clothing store home goods store store
p72
sV544f6566-4320-45d3-9058-9bbb6b014326
p73
NsVd768385b-9cbb-4cd2-a3fc-a15032620c03
p74
Vschool
p75
sV2b445a80-9381-41fd-98a3-2c819f532ee8
p76
Vgeneral contractor
p77
sV81ea2186-a647-4955-8226-235d3681b4a5
p78
Vaccounting finance
p79
sV56ad1c39-b861-478b-b493-c58cef2ae758
p80
Vmuseum
p81
sVce4d219b-7354-449c-ad69-7fa6abe4e79f
p82
Vstore
p83
sVdbfd64c1-2d51-486a-b573-b0bd0572543b
p84
NsV85c05432-a8c5-4a3c-91d7-e4b184ef5f2e
p85
Vchurch place of worship
p86
sV9e90b700-78cf-471e-8684-46dc18d26062
p87
NsVbdcc9551-a547-4e1e-bb4d-d39801e39f4d
p88
NsV600894e8-0e55-49c5-b443-5638d7c4605e
p89
Vroofing contractor general contractor home goods store store
p90
sVae7938c3-9ee9-4674-921d-e562db91ffb0
p91
g6
sVd0234e84-f47f-4bfb-89c6-140a0368d3a1
p92
g6
sV968b3f23-f1bc-4a30-997f-24adc25155ec
p93
Vtravel agency store health
p94
sV8c1ed893-d802-42ed-adfa-5f9c05b66a9c
p95
NsVc463598d-d1b2-47cc-b3bf-a3233f091b70
p96
Vroute
p97
sV1bad59cf-7dca-422d-ae1a-68226f272e17
p98
Vbar restaurant food
p99
sV66f8d14f-ed2f-417a-8948-36b31b4fff14
p100
NsVc054ac75-3f0d-4436-b070-3ad9b791a348
p101
Vhealth
p102
sVa6f65108-f364-42c0-8a01-7956ba16bcde
p103
Vclothing store store
p104
sV05d6dcb2-cfb7-48be-afb7-df767aad3d78
p105
NsVb8b99aa8-f61a-4351-bbca-a82a4027bf99
p106
NsVe6d31ab6-440b-4554-ad13-69f2015239ba
p107
Vschool
p108
sV47f7ed38-53a5-4356-b00d-e3a3facafcd2
p109
Vfurniture store electronics store general contractor home goods store store
p110
sVab16d7e3-665a-4381-895c-c6c0c22d68ae
p111
NsV8d921822-4cfd-425f-a987-c6b3a0803deb
p112
g6
sV89e7e7b5-8d86-4dd4-bc9f-ab4c380984f1
p113
g6
sV64669eb2-f38a-4dd4-bd45-403c71ed4c34
p114
g6
sV8be12a99-1314-4400-b36b-beb86c3f931f
p115
Vfood store
p116
sV52dec9d1-cf6d-4cec-aadd-13039e995467
p117
Vreal estate agency
p118
sV3e4def05-d64a-4215-9d7a-f4ffb66a2d4c
p119
Vrestaurant food
p120
sV2c0630d2-6fe0-42cd-96e7-2c17fdbfcb39
p121
Vlodging
p122
sV1fb9b90f-29c7-43f0-9ff5-496a5577ff68
p123
Vgeneral contractor
p124
sV91765f0a-43fa-435c-81f5-03e5cb42a0ee
p125
NsV5c116754-648d-4ff3-9a68-126f32952688
p126
Vgrocery or supermarket food store
p127
sV2112e3a5-1160-49c7-81e6-b27f9fad31a3
p128
Vlawyer
p129
sV6c5c0ed4-9d08-48fb-a4e2-dd3d274c207d
p130
Vdentist health
p131
sVfb1d72b5-68bf-4479-983f-fcfecce7e0d6
p132
Vlocality political
p133
sV1b9d2a79-ff3d-4516-9623-4e746f20e548
p134
Vschool
p135
sV67fa2256-845b-4573-86c8-50fa975cd19b
p136
Vlocality political
p137
s.